; Function Attrs: mustprogress uwtable
define hidden noundef ptr @pj_tmerc(ptr noundef %0) local_unnamed_addr #0 {
  %2 = alloca i32, align 4
  %.not = icmp eq ptr %0, null
  br i1 %.not, label %10, label %3

3:                                                ; preds = %1
  call void @llvm.lifetime.start.p0(i64 4, ptr nonnull %2) #11
  %4 = call fastcc noundef zeroext i1 @_ZL17getAlgoFromParamsP8PJconstsR9TMercAlgo(ptr noundef nonnull %0, ptr noundef nonnull align 4 dereferenceable(4) %2)
  br i1 %4, label %7, label %5

5:                                                ; preds = %3
  tail call void (ptr, ptr, ...) @_Z14proj_log_errorPK8PJconstsPKcz(ptr noundef nonnull %0, ptr noundef nonnull @.str.1)
  %6 = tail call noundef ptr @_Z21pj_default_destructorP8PJconstsi(ptr noundef nonnull %0, i32 noundef 1027)
  br label %_Z34pj_projection_specific_setup_tmercP8PJconsts.exit

7:                                                ; preds = %3
  %8 = load i32, ptr %2, align 4, !tbaa !3
  %9 = tail call fastcc noundef ptr @_ZL5setupP8PJconsts9TMercAlgo(ptr noundef nonnull %0, i32 noundef %8)
  br label %_Z34pj_projection_specific_setup_tmercP8PJconsts.exit

_Z34pj_projection_specific_setup_tmercP8PJconsts.exit: ; preds = %5, %7
  %.0.i = phi ptr [ %9, %7 ], [ %6, %5 ]
  call void @llvm.lifetime.end.p0(i64 4, ptr nonnull %2) #11
  br label %19

10:                                               ; preds = %1
  %11 = tail call noundef ptr @_Z6pj_newv()
  %12 = icmp eq ptr %11, null
  br i1 %12, label %19, label %13

13:                                               ; preds = %10
  %14 = getelementptr inbounds nuw i8, ptr %11, i64 8
  store ptr @.str, ptr %14, align 8, !tbaa !7
  %15 = getelementptr inbounds nuw i8, ptr %11, i64 16
  store ptr @_ZL9des_tmerc, ptr %15, align 8, !tbaa !38
  %16 = getelementptr inbounds nuw i8, ptr %11, i64 360
  store i32 1, ptr %16, align 8, !tbaa !39
  %17 = getelementptr inbounds nuw i8, ptr %11, i64 380
  store i32 4, ptr %17, align 4, !tbaa !40
  %18 = getelementptr inbounds nuw i8, ptr %11, i64 384
  store i32 1, ptr %18, align 8, !tbaa !41
  br label %19

19:                                               ; preds = %10, %13, %_Z34pj_projection_specific_setup_tmercP8PJconsts.exit
  %.0 = phi ptr [ %.0.i, %_Z34pj_projection_specific_setup_tmercP8PJconsts.exit ], [ %11, %13 ], [ null, %10 ]
  ret ptr %.0
}